target datalayout = "e-m:e-p270:32:32-p271:32:32-p272:64:64-i64:64-i128:128-f80:128-n8:16:32:64-S128"
target triple = "x86_64-pc-linux-gnu"

%"class.cvc5::internal::NodeTemplate" = type { ptr }
%"class.cvc5::internal::expr::NodeValue" = type { i64, i64, ptr, [0 x ptr] }

; Function Attrs: inlinehint mustprogress nounwind uwtable
define linkonce_odr hidden void @_ZNK4cvc58internal12NodeTemplateILb1EE21assertTNodeNotExpiredEv(ptr noundef nonnull align 8 dereferenceable(8) %0) #7 comdat align 2 {
  %2 = alloca ptr, align 8
  store ptr %0, ptr %2, align 8, !tbaa !14
  ret void
}

; Function Attrs: inlinehint mustprogress nounwind uwtable
define linkonce_odr hidden noundef i32 @_ZNK4cvc58internal12NodeTemplateILb1EE7getKindEv(ptr noundef nonnull align 8 dereferenceable(8) %0) #7 comdat align 2 {
  %2 = alloca ptr, align 8
  store ptr %0, ptr %2, align 8, !tbaa !14
  %3 = load ptr, ptr %2, align 8
  call void @_ZNK4cvc58internal12NodeTemplateILb1EE21assertTNodeNotExpiredEv(ptr noundef nonnull align 8 dereferenceable(8) %3)
  %4 = getelementptr inbounds nuw %"class.cvc5::internal::NodeTemplate", ptr %3, i32 0, i32 0
  %5 = load ptr, ptr %4, align 8, !tbaa !38
  %6 = getelementptr inbounds nuw %"class.cvc5::internal::expr::NodeValue", ptr %5, i32 0, i32 1
  %7 = load i64, ptr %6, align 8
  %8 = and i64 %7, 1023
  %9 = trunc i64 %8 to i32
  ret i32 %9
}

; Function Attrs: mustprogress uwtable
define hidden void @_ZN4cvc58internal6theory13QuantPhaseReq11getPolarityENS0_12NodeTemplateILb1EEEmbbRbS5_(ptr noundef %0, i64 noundef %1, i1 noundef zeroext %2, i1 noundef zeroext %3, ptr noundef nonnull align 1 dereferenceable(1) %4, ptr noundef nonnull align 1 dereferenceable(1) %5) #4 align 2 {
  %7 = alloca ptr, align 8
  %8 = alloca i64, align 8
  %9 = alloca i8, align 1
  %10 = alloca i8, align 1
  %11 = alloca ptr, align 8
  %12 = alloca ptr, align 8
  store ptr %0, ptr %7, align 8, !tbaa !14
  store i64 %1, ptr %8, align 8, !tbaa !70
  %13 = zext i1 %2 to i8
  store i8 %13, ptr %9, align 1, !tbaa !16
  %14 = zext i1 %3 to i8
  store i8 %14, ptr %10, align 1, !tbaa !16
  store ptr %4, ptr %11, align 8, !tbaa !82
  store ptr %5, ptr %12, align 8, !tbaa !82
  %15 = call noundef i32 @_ZNK4cvc58internal12NodeTemplateILb1EE7getKindEv(ptr noundef nonnull align 8 dereferenceable(8) %0)
  %16 = icmp eq i32 %15, 22
  br i1 %16, label %23, label %17

17:                                               ; preds = %6
  %18 = call noundef i32 @_ZNK4cvc58internal12NodeTemplateILb1EE7getKindEv(ptr noundef nonnull align 8 dereferenceable(8) %0)
  %19 = icmp eq i32 %18, 24
  br i1 %19, label %23, label %20

20:                                               ; preds = %17
  %21 = call noundef i32 @_ZNK4cvc58internal12NodeTemplateILb1EE7getKindEv(ptr noundef nonnull align 8 dereferenceable(8) %0)
  %22 = icmp eq i32 %21, 249
  br i1 %22, label %23, label %32

23:                                               ; preds = %20, %17, %6
  %24 = load i8, ptr %9, align 1, !tbaa !16, !range !18, !noundef !19
  %25 = trunc i8 %24 to i1
  %26 = load ptr, ptr %11, align 8, !tbaa !82
  %27 = zext i1 %25 to i8
  store i8 %27, ptr %26, align 1, !tbaa !16
  %28 = load i8, ptr %10, align 1, !tbaa !16, !range !18, !noundef !19
  %29 = trunc i8 %28 to i1
  %30 = load ptr, ptr %12, align 8, !tbaa !82
  %31 = zext i1 %29 to i8
  store i8 %31, ptr %30, align 1, !tbaa !16
  br label %107

32:                                               ; preds = %20
  %33 = call noundef i32 @_ZNK4cvc58internal12NodeTemplateILb1EE7getKindEv(ptr noundef nonnull align 8 dereferenceable(8) %0)
  %34 = icmp eq i32 %33, 23
  br i1 %34, label %35, label %53

35:                                               ; preds = %32
  %36 = load i8, ptr %9, align 1, !tbaa !16, !range !18, !noundef !19
  %37 = trunc i8 %36 to i1
  %38 = load ptr, ptr %11, align 8, !tbaa !82
  %39 = zext i1 %37 to i8
  store i8 %39, ptr %38, align 1, !tbaa !16
  %40 = load i64, ptr %8, align 8, !tbaa !70
  %41 = icmp eq i64 %40, 0
  br i1 %41, label %42, label %46

42:                                               ; preds = %35
  %43 = load i8, ptr %10, align 1, !tbaa !16, !range !18, !noundef !19
  %44 = trunc i8 %43 to i1
  %45 = xor i1 %44, true
  br label %49

46:                                               ; preds = %35
  %47 = load i8, ptr %10, align 1, !tbaa !16, !range !18, !noundef !19
  %48 = trunc i8 %47 to i1
  br label %49

49:                                               ; preds = %46, %42
  %50 = phi i1 [ %45, %42 ], [ %48, %46 ]
  %51 = load ptr, ptr %12, align 8, !tbaa !82
  %52 = zext i1 %50 to i8
  store i8 %52, ptr %51, align 1, !tbaa !16
  br label %106

53:                                               ; preds = %32
  %54 = call noundef i32 @_ZNK4cvc58internal12NodeTemplateILb1EE7getKindEv(ptr noundef nonnull align 8 dereferenceable(8) %0)
  %55 = icmp eq i32 %54, 21
  br i1 %55, label %56, label %66

56:                                               ; preds = %53
  %57 = load i8, ptr %9, align 1, !tbaa !16, !range !18, !noundef !19
  %58 = trunc i8 %57 to i1
  %59 = load ptr, ptr %11, align 8, !tbaa !82
  %60 = zext i1 %58 to i8
  store i8 %60, ptr %59, align 1, !tbaa !16
  %61 = load i8, ptr %10, align 1, !tbaa !16, !range !18, !noundef !19
  %62 = trunc i8 %61 to i1
  %63 = xor i1 %62, true
  %64 = load ptr, ptr %12, align 8, !tbaa !82
  %65 = zext i1 %63 to i8
  store i8 %65, ptr %64, align 1, !tbaa !16
  br label %105

66:                                               ; preds = %53
  %67 = call noundef i32 @_ZNK4cvc58internal12NodeTemplateILb1EE7getKindEv(ptr noundef nonnull align 8 dereferenceable(8) %0)
  %68 = icmp eq i32 %67, 26
  br i1 %68, label %69, label %83

69:                                               ; preds = %66
  %70 = load i64, ptr %8, align 8, !tbaa !70
  %71 = icmp ne i64 %70, 0
  br i1 %71, label %72, label %75

72:                                               ; preds = %69
  %73 = load i8, ptr %9, align 1, !tbaa !16, !range !18, !noundef !19
  %74 = trunc i8 %73 to i1
  br label %75

75:                                               ; preds = %72, %69
  %76 = phi i1 [ false, %69 ], [ %74, %72 ]
  %77 = load ptr, ptr %11, align 8, !tbaa !82
  %78 = zext i1 %76 to i8
  store i8 %78, ptr %77, align 1, !tbaa !16
  %79 = load i8, ptr %10, align 1, !tbaa !16, !range !18, !noundef !19
  %80 = trunc i8 %79 to i1
  %81 = load ptr, ptr %12, align 8, !tbaa !82
  %82 = zext i1 %80 to i8
  store i8 %82, ptr %81, align 1, !tbaa !16
  br label %104

83:                                               ; preds = %66
  %84 = call noundef i32 @_ZNK4cvc58internal12NodeTemplateILb1EE7getKindEv(ptr noundef nonnull align 8 dereferenceable(8) %0)
  %85 = icmp eq i32 %84, 365
  br i1 %85, label %86, label %100

86:                                               ; preds = %83
  %87 = load i64, ptr %8, align 8, !tbaa !70
  %88 = icmp eq i64 %87, 1
  br i1 %88, label %89, label %92

89:                                               ; preds = %86
  %90 = load i8, ptr %9, align 1, !tbaa !16, !range !18, !noundef !19
  %91 = trunc i8 %90 to i1
  br label %92

92:                                               ; preds = %89, %86
  %93 = phi i1 [ false, %86 ], [ %91, %89 ]
  %94 = load ptr, ptr %11, align 8, !tbaa !82
  %95 = zext i1 %93 to i8
  store i8 %95, ptr %94, align 1, !tbaa !16
  %96 = load i8, ptr %10, align 1, !tbaa !16, !range !18, !noundef !19
  %97 = trunc i8 %96 to i1
  %98 = load ptr, ptr %12, align 8, !tbaa !82
  %99 = zext i1 %97 to i8
  store i8 %99, ptr %98, align 1, !tbaa !16
  br label %103

100:                                              ; preds = %83
  %101 = load ptr, ptr %11, align 8, !tbaa !82
  store i8 0, ptr %101, align 1, !tbaa !16
  %102 = load ptr, ptr %12, align 8, !tbaa !82
  store i8 0, ptr %102, align 1, !tbaa !16
  br label %103

103:                                              ; preds = %100, %92
  br label %104

104:                                              ; preds = %103, %75
  br label %105

105:                                              ; preds = %104, %56
  br label %106

106:                                              ; preds = %105, %49
  br label %107

107:                                              ; preds = %106, %23
  ret void
}