; Function Attrs: mustprogress nofree norecurse nosync nounwind willreturn memory(read, argmem: readwrite, inaccessiblemem: none) uwtable
define hidden void @_ZN4cvc58internal6theory13QuantPhaseReq11getPolarityENS0_12NodeTemplateILb1EEEmbbRbS5_(ptr noundef readonly captures(none) %0, i64 noundef %1, i1 noundef zeroext %2, i1 noundef zeroext %3, ptr noundef nonnull writeonly align 1 captures(none) dereferenceable(1) initializes((0, 1)) %4, ptr noundef nonnull writeonly align 1 captures(none) dereferenceable(1) initializes((0, 1)) %5) local_unnamed_addr #6 align 2 {
  %7 = zext i1 %2 to i8
  %8 = load ptr, ptr %0, align 8, !tbaa !18
  %9 = getelementptr inbounds nuw i8, ptr %8, i64 8
  %10 = load i64, ptr %9, align 8
  %11 = trunc i64 %10 to i32
  %12 = and i32 %11, 1023
  switch i32 %12, label %26 [
    i32 22, label %13
    i32 24, label %13
    i32 249, label %13
    i32 23, label %14
    i32 21, label %16
    i32 26, label %18
    i32 365, label %22
  ]

13:                                               ; preds = %6, %6, %6
  store i8 %7, ptr %4, align 1, !tbaa !31
  br label %27

14:                                               ; preds = %6
  store i8 %7, ptr %4, align 1, !tbaa !31
  %15 = icmp eq i64 %1, 0
  %spec.select = xor i1 %15, %3
  br label %27

16:                                               ; preds = %6
  store i8 %7, ptr %4, align 1, !tbaa !31
  %17 = xor i1 %3, true
  br label %27

18:                                               ; preds = %6
  %19 = icmp ne i64 %1, 0
  %20 = and i1 %19, %2
  %21 = zext i1 %20 to i8
  store i8 %21, ptr %4, align 1, !tbaa !31
  br label %27

22:                                               ; preds = %6
  %23 = icmp eq i64 %1, 1
  %24 = and i1 %23, %2
  %25 = zext i1 %24 to i8
  store i8 %25, ptr %4, align 1, !tbaa !31
  br label %27

26:                                               ; preds = %6
  store i8 0, ptr %4, align 1, !tbaa !31
  br label %27

27:                                               ; preds = %14, %18, %26, %22, %16, %13
  %.sink.shrunk = phi i1 [ %spec.select, %14 ], [ %3, %18 ], [ false, %26 ], [ %3, %22 ], [ %17, %16 ], [ %3, %13 ]
  %.sink = zext i1 %.sink.shrunk to i8
  store i8 %.sink, ptr %5, align 1, !tbaa !31
  ret void
}